; Function Attrs: mustprogress uwtable
define void @_ZNK2cv21GraphicalCodeDetector15detectAndDecodeB5cxx11ERKNS_11_InputArrayERKNS_12_OutputArrayES6_(ptr dead_on_unwind noalias writable sret(%"class.std::__cxx11::basic_string") align 8 %0, ptr noundef nonnull readonly align 8 captures(none) dereferenceable(16) %1, ptr noundef nonnull align 8 dereferenceable(24) %2, ptr noundef nonnull align 8 dereferenceable(24) %3, ptr noundef nonnull align 8 dereferenceable(24) %4) local_unnamed_addr #1 align 2 personality ptr @__gxx_personality_v0 {
  %6 = alloca %"class.std::__cxx11::basic_string", align 8
  %7 = alloca %"class.std::allocator", align 1
  %8 = load ptr, ptr %1, align 8, !tbaa !3
  %.not = icmp eq ptr %8, null
  br i1 %.not, label %9, label %19

9:                                                ; preds = %5
  call void @llvm.lifetime.start.p0(i64 32, ptr nonnull %6) #7
  call void @llvm.lifetime.start.p0(i64 1, ptr nonnull %7) #7
  call void @_ZNSt7__cxx1112basic_stringIcSt11char_traitsIcESaIcEEC2EPKcRKS3_(ptr noundef nonnull align 8 dereferenceable(32) %6, ptr noundef nonnull @.str, ptr noundef nonnull align 1 dereferenceable(1) %7)
  invoke void @_ZN2cv5errorEiRKNSt7__cxx1112basic_stringIcSt11char_traitsIcESaIcEEEPKcS9_i(i32 noundef -215, ptr noundef nonnull align 8 dereferenceable(32) %6, ptr noundef nonnull @__func__._ZNK2cv21GraphicalCodeDetector15detectAndDecodeB5cxx11ERKNS_11_InputArrayERKNS_12_OutputArrayES6_, ptr noundef nonnull @.str.1, i32 noundef 24) #8
          to label %10 unwind label %11

10:                                               ; preds = %9
  unreachable

11:                                               ; preds = %9
  %12 = landingpad { ptr, i32 }
          cleanup
  %13 = load ptr, ptr %6, align 8, !tbaa !11
  %14 = getelementptr inbounds nuw i8, ptr %6, i64 16
  %15 = icmp eq ptr %13, %14
  br i1 %15, label %_ZNKSt7__cxx1112basic_stringIcSt11char_traitsIcESaIcEE11_M_is_localEv.exit.thread.i.i, label %_ZNKSt7__cxx1112basic_stringIcSt11char_traitsIcESaIcEE11_M_is_localEv.exit.i.i

_ZNKSt7__cxx1112basic_stringIcSt11char_traitsIcESaIcEE11_M_is_localEv.exit.thread.i.i: ; preds = %11
  %16 = getelementptr inbounds nuw i8, ptr %6, i64 8
  %17 = load i64, ptr %16, align 8, !tbaa !16
  %18 = icmp ult i64 %17, 16
  call void @llvm.assume(i1 %18)
  br label %_ZNSt7__cxx1112basic_stringIcSt11char_traitsIcESaIcEED2Ev.exit

_ZNKSt7__cxx1112basic_stringIcSt11char_traitsIcESaIcEE11_M_is_localEv.exit.i.i: ; preds = %11
  call void @_ZdlPv(ptr noundef %13) #9
  br label %_ZNSt7__cxx1112basic_stringIcSt11char_traitsIcESaIcEED2Ev.exit

_ZNSt7__cxx1112basic_stringIcSt11char_traitsIcESaIcEED2Ev.exit: ; preds = %_ZNKSt7__cxx1112basic_stringIcSt11char_traitsIcESaIcEE11_M_is_localEv.exit.i.i, %_ZNKSt7__cxx1112basic_stringIcSt11char_traitsIcESaIcEE11_M_is_localEv.exit.thread.i.i
  call void @llvm.lifetime.end.p0(i64 1, ptr nonnull %7) #7
  call void @llvm.lifetime.end.p0(i64 32, ptr nonnull %6) #7
  resume { ptr, i32 } %12

19:                                               ; preds = %5
  %20 = load ptr, ptr %8, align 8, !tbaa !17
  %21 = getelementptr inbounds nuw i8, ptr %20, i64 32
  %22 = load ptr, ptr %21, align 8
  tail call void %22(ptr dead_on_unwind writable sret(%"class.std::__cxx11::basic_string") align 8 %0, ptr noundef nonnull align 8 dereferenceable(8) %8, ptr noundef nonnull align 8 dereferenceable(24) %2, ptr noundef nonnull align 8 dereferenceable(24) %3, ptr noundef nonnull align 8 dereferenceable(24) %4)
  ret void
}